target datalayout = "e-m:e-p270:32:32-p271:32:32-p272:64:64-i64:64-i128:128-f80:128-n8:16:32:64-S128"
target triple = "x86_64-pc-linux-gnu"

; Function Attrs: nounwind uwtable
define ptr @ggml_new_tensor(ptr noundef %0, i32 noundef %1, i32 noundef %2, ptr noundef %3) #5 {
  %5 = alloca ptr, align 8
  %6 = alloca i32, align 4
  %7 = alloca i32, align 4
  %8 = alloca ptr, align 8
  store ptr %0, ptr %5, align 8, !tbaa !48
  store i32 %1, ptr %6, align 4, !tbaa !8
  store i32 %2, ptr %7, align 4, !tbaa !8
  store ptr %3, ptr %8, align 8, !tbaa !88
  %9 = load ptr, ptr %5, align 8, !tbaa !48
  %10 = load i32, ptr %6, align 4, !tbaa !8
  %11 = load i32, ptr %7, align 4, !tbaa !8
  %12 = load ptr, ptr %8, align 8, !tbaa !88
  %13 = call ptr @ggml_new_tensor_impl(ptr noundef %9, i32 noundef %10, i32 noundef %11, ptr noundef %12, ptr noundef null, i64 noundef 0)
  ret ptr %13
}

; Function Attrs: nounwind uwtable
define ptr @ggml_new_tensor_2d(ptr noundef %0, i32 noundef %1, i64 noundef %2, i64 noundef %3) #5 {
  %5 = alloca ptr, align 8
  %6 = alloca i32, align 4
  %7 = alloca i64, align 8
  %8 = alloca i64, align 8
  %9 = alloca [2 x i64], align 16
  store ptr %0, ptr %5, align 8, !tbaa !48
  store i32 %1, ptr %6, align 4, !tbaa !8
  store i64 %2, ptr %7, align 8, !tbaa !19
  store i64 %3, ptr %8, align 8, !tbaa !19
  call void @llvm.lifetime.start.p0(i64 16, ptr %9) #14
  %10 = load i64, ptr %7, align 8, !tbaa !19
  store i64 %10, ptr %9, align 8, !tbaa !19
  %11 = getelementptr inbounds i64, ptr %9, i64 1
  %12 = load i64, ptr %8, align 8, !tbaa !19
  store i64 %12, ptr %11, align 8, !tbaa !19
  %13 = load ptr, ptr %5, align 8, !tbaa !48
  %14 = load i32, ptr %6, align 4, !tbaa !8
  %15 = getelementptr inbounds [2 x i64], ptr %9, i64 0, i64 0
  %16 = call ptr @ggml_new_tensor(ptr noundef %13, i32 noundef %14, i32 noundef 2, ptr noundef %15)
  call void @llvm.lifetime.end.p0(i64 16, ptr %9) #14
  ret ptr %16
}