; Function Attrs: nounwind uwtable
define noundef ptr @ggml_new_tensor_2d(ptr noundef captures(none) %0, i32 noundef %1, i64 noundef %2, i64 noundef %3) local_unnamed_addr #4 {
  %5 = alloca [2 x i64], align 16
  call void @llvm.lifetime.start.p0(i64 16, ptr nonnull %5) #42
  store i64 %2, ptr %5, align 16, !tbaa !39
  %6 = getelementptr inbounds nuw i8, ptr %5, i64 8
  store i64 %3, ptr %6, align 8, !tbaa !39
  %7 = call fastcc noundef ptr @ggml_new_tensor_impl(ptr noundef %0, i32 noundef %1, i32 noundef 2, ptr noundef nonnull readonly %5, ptr noundef null, i64 noundef 0)
  call void @llvm.lifetime.end.p0(i64 16, ptr nonnull %5) #42
  ret ptr %7
}